target datalayout = "e-m:e-p270:32:32-p271:32:32-p272:64:64-i64:64-i128:128-f80:128-n8:16:32:64-S128"
target triple = "x86_64-pc-linux-gnu"

@g_tres_count = external global i32, align 4

; Function Attrs: nounwind uwtable
define internal i32 @_validate_tres_usage_limits(ptr noundef %0, ptr noundef %1, ptr noundef %2, ptr noundef %3, ptr noundef %4, ptr noundef %5, ptr noundef %6, i1 noundef zeroext %7, i1 noundef zeroext %8) #0 {
  %10 = alloca i32, align 4
  %11 = alloca ptr, align 8
  %12 = alloca ptr, align 8
  %13 = alloca ptr, align 8
  %14 = alloca ptr, align 8
  %15 = alloca ptr, align 8
  %16 = alloca ptr, align 8
  %17 = alloca ptr, align 8
  %18 = alloca i8, align 1
  %19 = alloca i8, align 1
  %20 = alloca i32, align 4
  %21 = alloca i64, align 8
  %22 = alloca i32, align 4
  store ptr %0, ptr %11, align 8
  store ptr %1, ptr %12, align 8
  store ptr %2, ptr %13, align 8
  store ptr %3, ptr %14, align 8
  store ptr %4, ptr %15, align 8
  store ptr %5, ptr %16, align 8
  store ptr %6, ptr %17, align 8
  %23 = zext i1 %7 to i8
  store i8 %23, ptr %18, align 1
  %24 = zext i1 %8 to i8
  store i8 %24, ptr %19, align 1
  call void @llvm.lifetime.start.p0(i64 4, ptr %20) #8
  call void @llvm.lifetime.start.p0(i64 8, ptr %21) #8
  store i64 0, ptr %21, align 8
  store i32 0, ptr %20, align 4
  br label %25

25:                                               ; preds = %157, %9
  %26 = load i32, ptr %20, align 4
  %27 = load i32, ptr @g_tres_count, align 4
  %28 = icmp ult i32 %26, %27
  br i1 %28, label %29, label %160

29:                                               ; preds = %25
  %30 = load i32, ptr %20, align 4
  %31 = load ptr, ptr %11, align 8
  store i32 %30, ptr %31, align 4
  %32 = load ptr, ptr %17, align 8
  %33 = icmp ne ptr %32, null
  br i1 %33, label %34, label %42

34:                                               ; preds = %29
  %35 = load ptr, ptr %17, align 8
  %36 = load i32, ptr %20, align 4
  %37 = sext i32 %36 to i64
  %38 = getelementptr inbounds i16, ptr %35, i64 %37
  %39 = load i16, ptr %38, align 2
  %40 = zext i16 %39 to i32
  %41 = icmp eq i32 %40, 65535
  br i1 %41, label %59, label %42

42:                                               ; preds = %34, %29
  %43 = load ptr, ptr %13, align 8
  %44 = icmp ne ptr %43, null
  br i1 %44, label %45, label %52

45:                                               ; preds = %42
  %46 = load ptr, ptr %13, align 8
  %47 = load i32, ptr %20, align 4
  %48 = sext i32 %47 to i64
  %49 = getelementptr inbounds i64, ptr %46, i64 %48
  %50 = load i64, ptr %49, align 8
  %51 = icmp ne i64 %50, -1
  br i1 %51, label %59, label %52

52:                                               ; preds = %45, %42
  %53 = load ptr, ptr %12, align 8
  %54 = load i32, ptr %20, align 4
  %55 = sext i32 %54 to i64
  %56 = getelementptr inbounds i64, ptr %53, i64 %55
  %57 = load i64, ptr %56, align 8
  %58 = icmp eq i64 %57, -1
  br i1 %58, label %59, label %60

59:                                               ; preds = %52, %45, %34
  br label %157

60:                                               ; preds = %52
  %61 = load i8, ptr %19, align 1, !range !8, !noundef !9
  %62 = trunc i8 %61 to i1
  br i1 %62, label %63, label %76

63:                                               ; preds = %60
  %64 = load ptr, ptr %13, align 8
  %65 = icmp ne ptr %64, null
  br i1 %65, label %66, label %76

66:                                               ; preds = %63
  %67 = load ptr, ptr %12, align 8
  %68 = load i32, ptr %20, align 4
  %69 = sext i32 %68 to i64
  %70 = getelementptr inbounds i64, ptr %67, i64 %69
  %71 = load i64, ptr %70, align 8
  %72 = load ptr, ptr %13, align 8
  %73 = load i32, ptr %20, align 4
  %74 = sext i32 %73 to i64
  %75 = getelementptr inbounds i64, ptr %72, i64 %74
  store i64 %71, ptr %75, align 8
  br label %76

76:                                               ; preds = %66, %63, %60
  %77 = load ptr, ptr %16, align 8
  %78 = icmp ne ptr %77, null
  br i1 %78, label %79, label %99

79:                                               ; preds = %76
  %80 = load ptr, ptr %14, align 8
  %81 = load i32, ptr %20, align 4
  %82 = sext i32 %81 to i64
  %83 = getelementptr inbounds i64, ptr %80, i64 %82
  %84 = load i64, ptr %83, align 8
  %85 = icmp ne i64 %84, 0
  br i1 %85, label %86, label %99

86:                                               ; preds = %79
  %87 = load ptr, ptr %16, align 8
  %88 = load i32, ptr %20, align 4
  %89 = sext i32 %88 to i64
  %90 = getelementptr inbounds i64, ptr %87, i64 %89
  %91 = load i64, ptr %90, align 8
  %92 = load ptr, ptr %12, align 8
  %93 = load i32, ptr %20, align 4
  %94 = sext i32 %93 to i64
  %95 = getelementptr inbounds i64, ptr %92, i64 %94
  %96 = load i64, ptr %95, align 8
  %97 = icmp uge i64 %91, %96
  br i1 %97, label %98, label %99

98:                                               ; preds = %86
  store i32 1, ptr %10, align 4
  store i32 1, ptr %22, align 4
  br label %161

99:                                               ; preds = %86, %79, %76
  %100 = load i8, ptr %18, align 1, !range !8, !noundef !9
  %101 = trunc i8 %100 to i1
  br i1 %101, label %102, label %156

102:                                              ; preds = %99
  %103 = load ptr, ptr %14, align 8
  %104 = load i32, ptr %20, align 4
  %105 = sext i32 %104 to i64
  %106 = getelementptr inbounds i64, ptr %103, i64 %105
  %107 = load i64, ptr %106, align 8
  %108 = load ptr, ptr %12, align 8
  %109 = load i32, ptr %20, align 4
  %110 = sext i32 %109 to i64
  %111 = getelementptr inbounds i64, ptr %108, i64 %110
  %112 = load i64, ptr %111, align 8
  %113 = icmp ugt i64 %107, %112
  br i1 %113, label %114, label %115

114:                                              ; preds = %102
  store i32 2, ptr %10, align 4
  store i32 1, ptr %22, align 4
  br label %161

115:                                              ; preds = %102
  %116 = load ptr, ptr %16, align 8
  %117 = icmp ne ptr %116, null
  br i1 %117, label %118, label %124

118:                                              ; preds = %115
  %119 = load ptr, ptr %16, align 8
  %120 = load i32, ptr %20, align 4
  %121 = sext i32 %120 to i64
  %122 = getelementptr inbounds i64, ptr %119, i64 %121
  %123 = load i64, ptr %122, align 8
  store i64 %123, ptr %21, align 8
  br label %124

124:                                              ; preds = %118, %115
  %125 = load ptr, ptr %15, align 8
  %126 = icmp ne ptr %125, null
  br i1 %126, label %127, label %155

127:                                              ; preds = %124
  %128 = load ptr, ptr %14, align 8
  %129 = load i32, ptr %20, align 4
  %130 = sext i32 %129 to i64
  %131 = getelementptr inbounds i64, ptr %128, i64 %130
  %132 = load i64, ptr %131, align 8
  %133 = icmp ne i64 %132, 0
  br i1 %133, label %134, label %155

134:                                              ; preds = %127
  %135 = load ptr, ptr %14, align 8
  %136 = load i32, ptr %20, align 4
  %137 = sext i32 %136 to i64
  %138 = getelementptr inbounds i64, ptr %135, i64 %137
  %139 = load i64, ptr %138, align 8
  %140 = load ptr, ptr %15, align 8
  %141 = load i32, ptr %20, align 4
  %142 = sext i32 %141 to i64
  %143 = getelementptr inbounds i64, ptr %140, i64 %142
  %144 = load i64, ptr %143, align 8
  %145 = add i64 %139, %144
  %146 = load ptr, ptr %12, align 8
  %147 = load i32, ptr %20, align 4
  %148 = sext i32 %147 to i64
  %149 = getelementptr inbounds i64, ptr %146, i64 %148
  %150 = load i64, ptr %149, align 8
  %151 = load i64, ptr %21, align 8
  %152 = sub i64 %150, %151
  %153 = icmp ugt i64 %145, %152
  br i1 %153, label %154, label %155

154:                                              ; preds = %134
  store i32 3, ptr %10, align 4
  store i32 1, ptr %22, align 4
  br label %161

155:                                              ; preds = %134, %127, %124
  br label %156

156:                                              ; preds = %155, %99
  br label %157

157:                                              ; preds = %156, %59
  %158 = load i32, ptr %20, align 4
  %159 = add nsw i32 %158, 1
  store i32 %159, ptr %20, align 4
  br label %25, !llvm.loop !45

160:                                              ; preds = %25
  store i32 0, ptr %10, align 4
  store i32 1, ptr %22, align 4
  br label %161

161:                                              ; preds = %160, %154, %114, %98
  call void @llvm.lifetime.end.p0(i64 8, ptr %21) #8
  call void @llvm.lifetime.end.p0(i64 4, ptr %20) #8
  %162 = load i32, ptr %10, align 4
  ret i32 %162
}