; Function Attrs: nofree norecurse nosync nounwind memory(read, argmem: readwrite, inaccessiblemem: none) uwtable
define internal fastcc range(i32 0, 4) i32 @_validate_tres_usage_limits(ptr noundef nonnull writeonly captures(none) %0, ptr noundef readonly captures(none) %1, ptr noundef captures(address_is_null) %2, ptr noundef readonly captures(none) %3, ptr noundef readonly captures(address_is_null) %4, ptr noundef readonly captures(address_is_null) %5, ptr noundef readonly captures(address_is_null) %6, i1 noundef zeroext %7, i1 noundef zeroext %8) unnamed_addr #7 {
  %10 = load i32, ptr @g_tres_count, align 4
  %.not99 = icmp eq i32 %10, 0
  br i1 %.not99, label %._crit_edge, label %.lr.ph

.lr.ph:                                           ; preds = %9
  %.not = icmp eq ptr %6, null
  %11 = icmp ne ptr %2, null
  %or.cond = and i1 %11, %8
  %.not55 = icmp eq ptr %5, null
  %.not58 = icmp eq ptr %4, null
  br i1 %7, label %.lr.ph.split.us, label %.lr.ph.split

.lr.ph.split.us:                                  ; preds = %.lr.ph, %49
  %indvars.iv118 = phi i64 [ %indvars.iv.next119, %49 ], [ 0, %.lr.ph ]
  %.062.us = phi i64 [ %.1.us, %49 ], [ 0, %.lr.ph ]
  %12 = trunc nuw nsw i64 %indvars.iv118 to i32
  store i32 %12, ptr %0, align 4
  br i1 %.not, label %17, label %13

13:                                               ; preds = %.lr.ph.split.us
  %14 = getelementptr inbounds nuw i16, ptr %6, i64 %indvars.iv118
  %15 = load i16, ptr %14, align 2
  %16 = icmp eq i16 %15, -1
  br i1 %16, label %49, label %17

17:                                               ; preds = %13, %.lr.ph.split.us
  br i1 %11, label %18, label %.thread

18:                                               ; preds = %17
  %19 = getelementptr inbounds nuw i64, ptr %2, i64 %indvars.iv118
  %20 = load i64, ptr %19, align 8
  %.not54.us = icmp eq i64 %20, -1
  br i1 %.not54.us, label %21, label %49

21:                                               ; preds = %18
  %22 = getelementptr inbounds nuw i64, ptr %1, i64 %indvars.iv118
  %23 = load i64, ptr %22, align 8
  %24 = icmp eq i64 %23, -1
  br i1 %24, label %49, label %28

.thread:                                          ; preds = %17
  %25 = getelementptr inbounds nuw i64, ptr %1, i64 %indvars.iv118
  %26 = load i64, ptr %25, align 8
  %27 = icmp eq i64 %26, -1
  br i1 %27, label %49, label %.thread124

28:                                               ; preds = %21
  br i1 %or.cond, label %29, label %.thread124

29:                                               ; preds = %28
  %30 = getelementptr inbounds nuw i64, ptr %2, i64 %indvars.iv118
  store i64 %23, ptr %30, align 8
  br label %.thread124

.thread124:                                       ; preds = %.thread, %29, %28
  %31 = phi ptr [ %22, %29 ], [ %22, %28 ], [ %25, %.thread ]
  %.phi.trans.insert = getelementptr inbounds nuw i64, ptr %3, i64 %indvars.iv118
  %.pre = load i64, ptr %.phi.trans.insert, align 8
  br i1 %.not55, label %36, label %32

32:                                               ; preds = %.thread124
  %.not56.us = icmp eq i64 %.pre, 0
  %.pre123 = load i64, ptr %31, align 8
  br i1 %.not56.us, label %.thread126, label %33

33:                                               ; preds = %32
  %34 = getelementptr inbounds nuw i64, ptr %5, i64 %indvars.iv118
  %35 = load i64, ptr %34, align 8
  %.not57.us = icmp ult i64 %35, %.pre123
  br i1 %.not57.us, label %.thread127, label %._crit_edge

36:                                               ; preds = %.thread124
  %.pre122 = load i64, ptr %31, align 8
  %37 = icmp ugt i64 %.pre, %.pre122
  br i1 %37, label %._crit_edge, label %41

.thread127:                                       ; preds = %33
  %38 = icmp ugt i64 %.pre, %.pre123
  br i1 %38, label %._crit_edge, label %.thread126

.thread126:                                       ; preds = %.thread127, %32
  %39 = getelementptr inbounds nuw i64, ptr %5, i64 %indvars.iv118
  %40 = load i64, ptr %39, align 8
  br label %41

41:                                               ; preds = %36, %.thread126
  %42 = phi i64 [ %.pre123, %.thread126 ], [ %.pre122, %36 ]
  %.2.us = phi i64 [ %40, %.thread126 ], [ %.062.us, %36 ]
  %.not59.us = icmp eq i64 %.pre, 0
  %or.cond60.us = or i1 %.not58, %.not59.us
  br i1 %or.cond60.us, label %49, label %43

43:                                               ; preds = %41
  %44 = getelementptr inbounds nuw i64, ptr %4, i64 %indvars.iv118
  %45 = load i64, ptr %44, align 8
  %46 = add i64 %45, %.pre
  %47 = sub i64 %42, %.2.us
  %48 = icmp ugt i64 %46, %47
  br i1 %48, label %._crit_edge, label %49

49:                                               ; preds = %.thread, %43, %41, %21, %18, %13
  %.1.us = phi i64 [ %.062.us, %13 ], [ %.062.us, %18 ], [ %.062.us, %21 ], [ %.2.us, %43 ], [ %.2.us, %41 ], [ %.062.us, %.thread ]
  %indvars.iv.next119 = add nuw nsw i64 %indvars.iv118, 1
  %50 = load i32, ptr @g_tres_count, align 4
  %51 = zext i32 %50 to i64
  %52 = icmp samesign ult i64 %indvars.iv.next119, %51
  br i1 %52, label %.lr.ph.split.us, label %._crit_edge, !llvm.loop !30

.lr.ph.split:                                     ; preds = %.lr.ph
  br i1 %.not55, label %.lr.ph.split.split.us, label %.lr.ph.split.split

.lr.ph.split.split.us:                            ; preds = %.lr.ph.split, %.thread129
  %indvars.iv115 = phi i64 [ %indvars.iv.next116, %.thread129 ], [ 0, %.lr.ph.split ]
  %53 = trunc nuw nsw i64 %indvars.iv115 to i32
  store i32 %53, ptr %0, align 4
  br i1 %.not, label %58, label %54

54:                                               ; preds = %.lr.ph.split.split.us
  %55 = getelementptr inbounds nuw i16, ptr %6, i64 %indvars.iv115
  %56 = load i16, ptr %55, align 2
  %57 = icmp ne i16 %56, -1
  %brmerge.not142 = and i1 %57, %11
  br i1 %brmerge.not142, label %59, label %.thread129

58:                                               ; preds = %.lr.ph.split.split.us
  br i1 %11, label %59, label %.thread129

59:                                               ; preds = %54, %58
  %60 = getelementptr inbounds nuw i64, ptr %2, i64 %indvars.iv115
  %61 = load i64, ptr %60, align 8
  %.not54.us73 = icmp eq i64 %61, -1
  br i1 %.not54.us73, label %62, label %.thread129

62:                                               ; preds = %59
  %63 = getelementptr inbounds nuw i64, ptr %1, i64 %indvars.iv115
  %64 = load i64, ptr %63, align 8
  %65 = icmp ne i64 %64, -1
  %brmerge.not = and i1 %65, %or.cond
  br i1 %brmerge.not, label %66, label %.thread129

66:                                               ; preds = %62
  %67 = getelementptr inbounds nuw i64, ptr %2, i64 %indvars.iv115
  store i64 %64, ptr %67, align 8
  br label %.thread129

.thread129:                                       ; preds = %54, %58, %62, %66, %59
  %indvars.iv.next116 = add nuw nsw i64 %indvars.iv115, 1
  %68 = load i32, ptr @g_tres_count, align 4
  %69 = zext i32 %68 to i64
  %70 = icmp samesign ult i64 %indvars.iv.next116, %69
  br i1 %70, label %.lr.ph.split.split.us, label %._crit_edge, !llvm.loop !30

.lr.ph.split.split:                               ; preds = %.lr.ph.split
  br i1 %.not, label %.lr.ph.split.split.split.us, label %.lr.ph.split.split.split

.lr.ph.split.split.split.us:                      ; preds = %.lr.ph.split.split, %92
  %indvars.iv112 = phi i64 [ %indvars.iv.next113, %92 ], [ 0, %.lr.ph.split.split ]
  %71 = trunc nuw nsw i64 %indvars.iv112 to i32
  store i32 %71, ptr %0, align 4
  br i1 %11, label %72, label %.thread131

72:                                               ; preds = %.lr.ph.split.split.split.us
  %73 = getelementptr inbounds nuw i64, ptr %2, i64 %indvars.iv112
  %74 = load i64, ptr %73, align 8
  %.not54.us77 = icmp eq i64 %74, -1
  br i1 %.not54.us77, label %75, label %92

75:                                               ; preds = %72
  %76 = getelementptr inbounds nuw i64, ptr %1, i64 %indvars.iv112
  %77 = load i64, ptr %76, align 8
  %78 = icmp eq i64 %77, -1
  br i1 %78, label %92, label %82

.thread131:                                       ; preds = %.lr.ph.split.split.split.us
  %79 = getelementptr inbounds nuw i64, ptr %1, i64 %indvars.iv112
  %80 = load i64, ptr %79, align 8
  %81 = icmp eq i64 %80, -1
  br i1 %81, label %92, label %.thread132

82:                                               ; preds = %75
  br i1 %or.cond, label %83, label %.thread132

83:                                               ; preds = %82
  %84 = getelementptr inbounds nuw i64, ptr %2, i64 %indvars.iv112
  store i64 %77, ptr %84, align 8
  br label %.thread132

.thread132:                                       ; preds = %.thread131, %83, %82
  %85 = phi ptr [ %76, %83 ], [ %76, %82 ], [ %79, %.thread131 ]
  %86 = getelementptr inbounds nuw i64, ptr %3, i64 %indvars.iv112
  %87 = load i64, ptr %86, align 8
  %.not56.us78 = icmp eq i64 %87, 0
  br i1 %.not56.us78, label %92, label %88

88:                                               ; preds = %.thread132
  %89 = getelementptr inbounds nuw i64, ptr %5, i64 %indvars.iv112
  %90 = load i64, ptr %89, align 8
  %91 = load i64, ptr %85, align 8
  %.not57.us79 = icmp ult i64 %90, %91
  br i1 %.not57.us79, label %92, label %._crit_edge

92:                                               ; preds = %.thread131, %.thread132, %88, %75, %72
  %indvars.iv.next113 = add nuw nsw i64 %indvars.iv112, 1
  %93 = load i32, ptr @g_tres_count, align 4
  %94 = zext i32 %93 to i64
  %95 = icmp samesign ult i64 %indvars.iv.next113, %94
  br i1 %95, label %.lr.ph.split.split.split.us, label %._crit_edge, !llvm.loop !30

.lr.ph.split.split.split:                         ; preds = %.lr.ph.split.split
  br i1 %11, label %.lr.ph.split.split.split.split.us, label %.lr.ph.split.split.split.split.split

.lr.ph.split.split.split.split.us:                ; preds = %.lr.ph.split.split.split, %116
  %indvars.iv109 = phi i64 [ %indvars.iv.next110, %116 ], [ 0, %.lr.ph.split.split.split ]
  %96 = trunc nuw nsw i64 %indvars.iv109 to i32
  store i32 %96, ptr %0, align 4
  %97 = getelementptr inbounds nuw i16, ptr %6, i64 %indvars.iv109
  %98 = load i16, ptr %97, align 2
  %99 = icmp eq i16 %98, -1
  br i1 %99, label %116, label %100

100:                                              ; preds = %.lr.ph.split.split.split.split.us
  %101 = getelementptr inbounds nuw i64, ptr %2, i64 %indvars.iv109
  %102 = load i64, ptr %101, align 8
  %.not54.us85 = icmp eq i64 %102, -1
  br i1 %.not54.us85, label %103, label %116

103:                                              ; preds = %100
  %104 = getelementptr inbounds nuw i64, ptr %1, i64 %indvars.iv109
  %105 = load i64, ptr %104, align 8
  %106 = icmp eq i64 %105, -1
  br i1 %106, label %116, label %107

107:                                              ; preds = %103
  br i1 %or.cond, label %108, label %109

108:                                              ; preds = %107
  store i64 %105, ptr %101, align 8
  br label %109

109:                                              ; preds = %108, %107
  %110 = getelementptr inbounds nuw i64, ptr %3, i64 %indvars.iv109
  %111 = load i64, ptr %110, align 8
  %.not56.us86 = icmp eq i64 %111, 0
  br i1 %.not56.us86, label %116, label %112

112:                                              ; preds = %109
  %113 = getelementptr inbounds nuw i64, ptr %5, i64 %indvars.iv109
  %114 = load i64, ptr %113, align 8
  %115 = load i64, ptr %104, align 8
  %.not57.us87 = icmp ult i64 %114, %115
  br i1 %.not57.us87, label %116, label %._crit_edge

116:                                              ; preds = %109, %112, %103, %100, %.lr.ph.split.split.split.split.us
  %indvars.iv.next110 = add nuw nsw i64 %indvars.iv109, 1
  %117 = load i32, ptr @g_tres_count, align 4
  %118 = zext i32 %117 to i64
  %119 = icmp samesign ult i64 %indvars.iv.next110, %118
  br i1 %119, label %.lr.ph.split.split.split.split.us, label %._crit_edge, !llvm.loop !30

.lr.ph.split.split.split.split.split:             ; preds = %.lr.ph.split.split.split, %134
  %indvars.iv = phi i64 [ %indvars.iv.next, %134 ], [ 0, %.lr.ph.split.split.split ]
  %120 = trunc nuw nsw i64 %indvars.iv to i32
  store i32 %120, ptr %0, align 4
  %121 = getelementptr inbounds nuw i16, ptr %6, i64 %indvars.iv
  %122 = load i16, ptr %121, align 2
  %123 = icmp eq i16 %122, -1
  br i1 %123, label %134, label %124

124:                                              ; preds = %.lr.ph.split.split.split.split.split
  %125 = getelementptr inbounds nuw i64, ptr %1, i64 %indvars.iv
  %126 = load i64, ptr %125, align 8
  %127 = icmp eq i64 %126, -1
  br i1 %127, label %134, label %128

128:                                              ; preds = %124
  %129 = getelementptr inbounds nuw i64, ptr %3, i64 %indvars.iv
  %130 = load i64, ptr %129, align 8
  %.not56 = icmp eq i64 %130, 0
  br i1 %.not56, label %134, label %131

131:                                              ; preds = %128
  %132 = getelementptr inbounds nuw i64, ptr %5, i64 %indvars.iv
  %133 = load i64, ptr %132, align 8
  %.not57 = icmp ult i64 %133, %126
  br i1 %.not57, label %134, label %._crit_edge

134:                                              ; preds = %128, %131, %.lr.ph.split.split.split.split.split, %124
  %indvars.iv.next = add nuw nsw i64 %indvars.iv, 1
  %135 = load i32, ptr @g_tres_count, align 4
  %136 = zext i32 %135 to i64
  %137 = icmp samesign ult i64 %indvars.iv.next, %136
  br i1 %137, label %.lr.ph.split.split.split.split.split, label %._crit_edge, !llvm.loop !30

._crit_edge:                                      ; preds = %131, %134, %112, %116, %88, %92, %.thread129, %33, %36, %43, %49, %.thread127, %9
  %.045 = phi i32 [ 0, %9 ], [ 2, %.thread127 ], [ 0, %49 ], [ 3, %43 ], [ 2, %36 ], [ 1, %33 ], [ 0, %.thread129 ], [ 0, %92 ], [ 1, %88 ], [ 0, %116 ], [ 1, %112 ], [ 0, %134 ], [ 1, %131 ]
  ret i32 %.045
}